; Function Attrs: null_pointer_is_valid sspstrong uwtable
define internal i32 @glusterfs_gfs4_0_op_lookup_call(ptr noundef %0, ptr noundef readonly captures(none) %1, ptr noundef %2, ptr readnone captures(none) %3) #0 {
  %5 = alloca ptr, align 8
  call void @llvm.lifetime.start.p0(i64 8, ptr nonnull %5) #4
  store ptr null, ptr %5, align 8
  %6 = load i32, ptr @hf_glusterfs_gfid, align 4
  %7 = tail call ptr @proto_tree_add_item(ptr noundef %2, i32 noundef %6, ptr noundef %0, i32 noundef 0, i32 noundef 16, i32 noundef 0)
  %8 = load i32, ptr @hf_glusterfs_pargfid, align 4
  %9 = tail call ptr @proto_tree_add_item(ptr noundef %2, i32 noundef %8, ptr noundef %0, i32 noundef 16, i32 noundef 16, i32 noundef 0)
  %10 = tail call fastcc i32 @glusterfs_rpc_dissect_flags(ptr noundef %2, ptr noundef %0, i32 noundef 32)
  %11 = tail call i32 @tvb_get_letohl(ptr noundef %0, i32 noundef %10)
  %12 = load i32, ptr @hf_glusterfs_bname, align 4
  %13 = call i32 @dissect_rpc_string(ptr noundef %0, ptr noundef %2, i32 noundef %12, i32 noundef %10, ptr noundef nonnull %5)
  %14 = load i32, ptr @hf_glusterfs_dict, align 4
  %15 = call fastcc i32 @gluster_rpc4_0_dissect_dict(ptr noundef %2, ptr noundef %0, i32 noundef %14, i32 noundef %13)
  %16 = icmp eq i32 %11, 0
  %17 = getelementptr inbounds nuw i8, ptr %1, i64 8
  %18 = load ptr, ptr %17, align 8
  br i1 %16, label %19, label %20

19:                                               ; preds = %4
  call void @col_append_str(ptr noundef %18, i32 noundef 25, ptr noundef nonnull @.str.577)
  br label %22

20:                                               ; preds = %4
  %21 = load ptr, ptr %5, align 8
  call void (ptr, i32, ptr, ...) @col_append_fstr(ptr noundef %18, i32 noundef 25, ptr noundef nonnull @.str.573, ptr noundef %21)
  br label %22

22:                                               ; preds = %20, %19
  call void @llvm.lifetime.end.p0(i64 8, ptr nonnull %5) #4
  ret i32 %15
}